; Function Attrs: nounwind uwtable
define noalias nonnull ptr @l_Lean_Elab_mkMessageCore(ptr noundef %0, ptr noundef %1, ptr noundef %2, i8 noundef zeroext %3, ptr noundef %4, ptr noundef %5) local_unnamed_addr #0 {
  %7 = ptrtoint ptr %1 to i64
  %8 = and i64 %7, 1
  %.not = icmp eq i64 %8, 0
  br i1 %.not, label %9, label %lean_inc.exit

9:                                                ; preds = %6
  %.val.i = load i32, ptr %1, align 4, !tbaa !8
  %10 = icmp sgt i32 %.val.i, 0
  br i1 %10, label %11, label %13, !prof !11

11:                                               ; preds = %9
  %12 = add nuw i32 %.val.i, 1
  store i32 %12, ptr %1, align 4, !tbaa !8
  br label %lean_inc.exit

13:                                               ; preds = %9
  %.not.i = icmp eq i32 %.val.i, 0
  br i1 %.not.i, label %lean_inc.exit, label %14

14:                                               ; preds = %13
  tail call void @lean_inc_ref_cold(ptr noundef nonnull %1) #3
  br label %lean_inc.exit

lean_inc.exit:                                    ; preds = %14, %13, %11, %6
  %15 = tail call ptr @l_Lean_FileMap_toPosition(ptr noundef %1, ptr noundef %4) #3
  %16 = tail call ptr @l_Lean_FileMap_toPosition(ptr noundef %1, ptr noundef %5) #3
  tail call void @lean_inc_heartbeat() #3
  %17 = tail call noalias ptr @mi_malloc_small(i64 noundef 16) #3
  %18 = icmp eq ptr %17, null
  br i1 %18, label %19, label %lean_alloc_ctor.exit

19:                                               ; preds = %lean_inc.exit
  tail call void @lean_internal_panic_out_of_memory() #4
  unreachable

lean_alloc_ctor.exit:                             ; preds = %lean_inc.exit
  %20 = getelementptr inbounds nuw i8, ptr %17, i64 4
  store i32 1, ptr %17, align 4, !tbaa !8
  store i32 16842768, ptr %20, align 4
  %21 = getelementptr inbounds nuw i8, ptr %17, i64 8
  store ptr %16, ptr %21, align 8, !tbaa !4
  %22 = load ptr, ptr @l_Lean_Elab_mkMessageCore___closed__1, align 8, !tbaa !4
  tail call void @lean_inc_heartbeat() #3
  %23 = tail call noalias ptr @mi_malloc_small(i64 noundef 56) #3
  %24 = icmp eq ptr %23, null
  br i1 %24, label %25, label %lean_alloc_ctor.exit23

25:                                               ; preds = %lean_alloc_ctor.exit
  tail call void @lean_internal_panic_out_of_memory() #4
  unreachable

lean_alloc_ctor.exit23:                           ; preds = %lean_alloc_ctor.exit
  %26 = getelementptr inbounds nuw i8, ptr %23, i64 4
  %27 = getelementptr inbounds nuw i8, ptr %23, i64 48
  store i64 0, ptr %27, align 8, !tbaa !18
  store i32 1, ptr %23, align 4, !tbaa !8
  store i32 327736, ptr %26, align 4
  %28 = getelementptr inbounds nuw i8, ptr %23, i64 8
  store ptr %0, ptr %28, align 8, !tbaa !4
  %29 = getelementptr inbounds nuw i8, ptr %23, i64 16
  store ptr %15, ptr %29, align 8, !tbaa !4
  %30 = getelementptr inbounds nuw i8, ptr %23, i64 24
  store ptr %17, ptr %30, align 8, !tbaa !4
  %31 = getelementptr inbounds nuw i8, ptr %23, i64 32
  store ptr %22, ptr %31, align 8, !tbaa !4
  %32 = getelementptr inbounds nuw i8, ptr %23, i64 40
  store ptr %2, ptr %32, align 8, !tbaa !4
  %33 = getelementptr inbounds nuw i8, ptr %23, i64 49
  store i8 %3, ptr %33, align 1, !tbaa !20
  ret ptr %23
}